target datalayout = "e-m:e-p270:32:32-p271:32:32-p272:64:64-i64:64-i128:128-f80:128-n8:16:32:64-S128"
target triple = "x86_64-pc-linux-gnu"

%"struct.G1NUMAStats::Stat" = type { i64, i64 }
%"class.G1NUMAStats::NodeDataArray" = type { i32, i32, ptr }

; Function Attrs: mustprogress nounwind uwtable
define hidden void @_ZNK11G1NUMAStats13NodeDataArray15create_hit_rateEPNS_4StatEj(ptr noundef nonnull align 8 dereferenceable(16) %0, ptr noundef %1, i32 noundef %2) #1 align 2 {
  %4 = alloca ptr, align 8
  %5 = alloca ptr, align 8
  %6 = alloca i32, align 4
  %7 = alloca i64, align 8
  %8 = alloca i64, align 8
  %9 = alloca i64, align 8
  store ptr %0, ptr %4, align 8
  store ptr %1, ptr %5, align 8
  store i32 %2, ptr %6, align 4
  %10 = load ptr, ptr %4, align 8
  store i64 0, ptr %7, align 8
  %11 = getelementptr inbounds %"class.G1NUMAStats::NodeDataArray", ptr %10, i32 0, i32 2
  %12 = load ptr, ptr %11, align 8
  %13 = load i32, ptr %6, align 4
  %14 = zext i32 %13 to i64
  %15 = getelementptr inbounds ptr, ptr %12, i64 %14
  %16 = load ptr, ptr %15, align 8
  %17 = load i32, ptr %6, align 4
  %18 = zext i32 %17 to i64
  %19 = getelementptr inbounds i64, ptr %16, i64 %18
  %20 = load i64, ptr %19, align 8
  store i64 %20, ptr %8, align 8
  store i64 0, ptr %9, align 8
  br label %21

21:                                               ; preds = %39, %3
  %22 = load i64, ptr %9, align 8
  %23 = getelementptr inbounds %"class.G1NUMAStats::NodeDataArray", ptr %10, i32 0, i32 0
  %24 = load i32, ptr %23, align 8
  %25 = zext i32 %24 to i64
  %26 = icmp ult i64 %22, %25
  br i1 %26, label %27, label %42

27:                                               ; preds = %21
  %28 = getelementptr inbounds %"class.G1NUMAStats::NodeDataArray", ptr %10, i32 0, i32 2
  %29 = load ptr, ptr %28, align 8
  %30 = load i32, ptr %6, align 4
  %31 = zext i32 %30 to i64
  %32 = getelementptr inbounds ptr, ptr %29, i64 %31
  %33 = load ptr, ptr %32, align 8
  %34 = load i64, ptr %9, align 8
  %35 = getelementptr inbounds i64, ptr %33, i64 %34
  %36 = load i64, ptr %35, align 8
  %37 = load i64, ptr %7, align 8
  %38 = add i64 %37, %36
  store i64 %38, ptr %7, align 8
  br label %39

39:                                               ; preds = %27
  %40 = load i64, ptr %9, align 8
  %41 = add i64 %40, 1
  store i64 %41, ptr %9, align 8
  br label %21, !llvm.loop !12

42:                                               ; preds = %21
  %43 = load i64, ptr %8, align 8
  %44 = load ptr, ptr %5, align 8
  %45 = getelementptr inbounds %"struct.G1NUMAStats::Stat", ptr %44, i32 0, i32 0
  store i64 %43, ptr %45, align 8
  %46 = load i64, ptr %7, align 8
  %47 = load ptr, ptr %5, align 8
  %48 = getelementptr inbounds %"struct.G1NUMAStats::Stat", ptr %47, i32 0, i32 1
  store i64 %46, ptr %48, align 8
  ret void
}