; Function Attrs: mustprogress nofree norecurse nosync nounwind memory(read, argmem: readwrite, inaccessiblemem: none) uwtable
define hidden void @_ZNK11G1NUMAStats13NodeDataArray15create_hit_rateEPNS_4StatEj(ptr nocapture noundef nonnull readonly align 8 dereferenceable(16) %0, ptr nocapture noundef writeonly %1, i32 noundef %2) local_unnamed_addr #4 align 2 {
  %4 = getelementptr inbounds i8, ptr %0, i64 8
  %5 = load ptr, ptr %4, align 8
  %6 = zext i32 %2 to i64
  %7 = getelementptr inbounds ptr, ptr %5, i64 %6
  %8 = load ptr, ptr %7, align 8
  %9 = getelementptr inbounds i64, ptr %8, i64 %6
  %10 = load i64, ptr %9, align 8
  %11 = load i32, ptr %0, align 8
  %12 = zext i32 %11 to i64
  %.not = icmp eq i32 %11, 0
  br i1 %.not, label %._crit_edge, label %.lr.ph

.lr.ph:                                           ; preds = %3, %.lr.ph
  %.013 = phi i64 [ %16, %.lr.ph ], [ 0, %3 ]
  %.01112 = phi i64 [ %15, %.lr.ph ], [ 0, %3 ]
  %13 = getelementptr inbounds i64, ptr %8, i64 %.013
  %14 = load i64, ptr %13, align 8
  %15 = add i64 %14, %.01112
  %16 = add nuw nsw i64 %.013, 1
  %exitcond.not = icmp eq i64 %16, %12
  br i1 %exitcond.not, label %._crit_edge, label %.lr.ph, !llvm.loop !12

._crit_edge:                                      ; preds = %.lr.ph, %3
  %.011.lcssa = phi i64 [ 0, %3 ], [ %15, %.lr.ph ]
  store i64 %10, ptr %1, align 8
  %17 = getelementptr inbounds i8, ptr %1, i64 8
  store i64 %.011.lcssa, ptr %17, align 8
  ret void
}